Certificate:
    Data:
        Version: 3 (0x2)
        Serial Number: 1 (0x1)
        Signature Algorithm: sha1WithRSAEncryption
        Issuer: DC=org, DC=simple, O=Simple Inc, OU=Simple Signing CA, CN=Simple Signing CA
        Validity
            Not Before: Dec  3 22:05:22 2023 GMT
            Not After : Dec  2 22:05:22 2025 GMT
        Subject: DC=org, DC=simple, O=Simple Inc, CN=Fred Flintstone
        Subject Public Key Info:
            Public Key Algorithm: rsaEncryption
                Public-Key: (2048 bit)
                Modulus:
                    00:ae:b2:5e:55:4c:ee:3d:4a:c0:2e:ae:f0:85:92:
                    5b:a8:f4:1e:33:b7:d4:1f:c2:df:98:38:24:42:6a:
                    9f:0e:b4:03:3e:61:f8:16:8b:cd:8c:4e:1f:68:16:
                    62:4b:c8:c7:41:5e:dd:6d:6a:f4:d8:e3:14:b6:0d:
                    70:6e:01:00:3d:07:56:15:ce:88:20:fb:06:39:5e:
                    57:fe:82:f0:14:f0:2a:5e:c3:5c:2c:2d:19:b7:4a:
                    a6:0f:52:82:9a:53:da:de:a7:29:96:b3:e0:a7:f3:
                    e8:df:1b:fd:2e:f1:58:0a:11:de:a5:8f:0c:a4:e0:
                    e1:ed:42:bc:56:19:f7:aa:29:03:bb:8d:5a:f6:e8:
                    85:be:60:10:54:ff:d5:ce:07:bd:ef:c5:83:57:56:
                    95:27:d4:21:5a:20:af:0a:44:6e:5b:4b:32:a3:d1:
                    83:1c:5a:58:d0:49:05:ef:60:01:ce:a8:29:a9:48:
                    64:e6:50:bf:7a:99:b3:b5:b2:4d:25:38:9a:5c:e7:
                    bc:37:8b:3f:d5:61:2d:99:d2:21:90:9c:94:24:ff:
                    79:88:e0:9a:31:ae:71:8a:c2:5f:b0:15:1c:85:c2:
                    84:77:06:76:92:71:2e:e9:50:76:6c:ad:81:0a:e1:
                    a9:93:0f:b7:52:f6:05:3f:ea:2d:19:99:57:75:ee:
                    ef:8f
                Exponent: 65537 (0x10001)
        X509v3 extensions:
            X509v3 Key Usage: critical
                Digital Signature, Key Encipherment
            X509v3 Basic Constraints: 
                CA:FALSE
            X509v3 Extended Key Usage: 
                E-mail Protection, TLS Web Client Authentication
            X509v3 Subject Key Identifier: 
                C2:D8:F5:30:FB:17:2D:68:E8:AD:91:21:47:8A:20:0F:09:40:18:90
            X509v3 Authority Key Identifier: 
                A6:39:B6:C4:13:E3:1B:40:69:10:DA:9A:F0:30:BD:DB:39:CD:83:55
            X509v3 Subject Alternative Name: 
                email:fred@simple.org
    Signature Algorithm: sha1WithRSAEncryption
    Signature Value:
        13:f5:2f:0b:9b:c4:dc:17:2d:24:8d:37:b8:e1:82:aa:6b:a5:
        c8:e7:5b:7b:b4:76:37:cc:69:94:5a:2f:07:3b:50:df:4a:4b:
        8d:f4:66:fb:61:d4:8e:ea:cb:b8:cc:b2:8f:f9:57:6e:bb:db:
        eb:f6:02:8c:15:5a:14:45:8f:dd:53:ea:d6:91:28:79:ac:79:
        bc:20:a8:23:d3:e8:75:11:0e:ed:f8:ea:21:31:de:9a:4c:b7:
        dd:15:cf:ff:41:08:60:f2:16:f4:da:17:78:0c:2b:02:d4:41:
        0f:6a:2b:0d:ce:fd:de:ed:0f:92:74:8e:be:c3:71:2a:e7:11:
        67:11:21:b3:62:18:a3:58:4f:be:2c:79:09:eb:66:41:71:6f:
        c7:b0:f5:de:a3:b3:12:5d:da:e5:de:13:66:54:1b:30:3d:bb:
        09:45:d6:81:ea:88:89:75:0a:bd:0e:93:ab:5a:55:a8:1a:eb:
        dd:c4:47:f4:7c:5a:fc:65:de:f9:0b:4b:5c:dd:cf:55:4e:1e:
        69:eb:bb:60:eb:fb:7b:b3:9a:fd:85:ac:c2:1e:36:cd:fd:e7:
        d1:9a:ce:58:0d:a1:5a:d6:48:47:ec:9a:1a:64:de:7b:c7:55:
        57:b0:a0:d5:7e:36:a8:f1:cf:1d:d8:d8:18:01:de:8e:96:d4:
        68:bc:c3:09
-----BEGIN CERTIFICATE-----
MIID6zCCAtOgAwIBAgIBATANBgkqhkiG9w0BAQUFADB6MRMwEQYKCZImiZPyLGQB
GRYDb3JnMRYwFAYKCZImiZPyLGQBGRYGc2ltcGxlMRMwEQYDVQQKDApTaW1wbGUg
SW5jMRowGAYDVQQLDBFTaW1wbGUgU2lnbmluZyBDQTEaMBgGA1UEAwwRU2ltcGxl
IFNpZ25pbmcgQ0EwHhcNMjMxMjAzMjIwNTIyWhcNMjUxMjAyMjIwNTIyWjBcMRMw
EQYKCZImiZPyLGQBGRYDb3JnMRYwFAYKCZImiZPyLGQBGRYGc2ltcGxlMRMwEQYD
VQQKDApTaW1wbGUgSW5jMRgwFgYDVQQDDA9GcmVkIEZsaW50c3RvbmUwggEiMA0G
CSqGSIb3DQEBAQUAA4IBDwAwggEKAoIBAQCusl5VTO49SsAurvCFkluo9B4zt9Qf
wt+YOCRCap8OtAM+YfgWi82MTh9oFmJLyMdBXt1tavTY4xS2DXBuAQA9B1YVzogg
+wY5Xlf+gvAU8Cpew1wsLRm3SqYPUoKaU9repymWs+Cn8+jfG/0u8VgKEd6ljwyk
4OHtQrxWGfeqKQO7jVr26IW+YBBU/9XOB73vxYNXVpUn1CFaIK8KRG5bSzKj0YMc
WljQSQXvYAHOqCmpSGTmUL96mbO1sk0lOJpc57w3iz/VYS2Z0iGQnJQk/3mI4Jox
rnGKwl+wFRyFwoR3BnaScS7pUHZsrYEK4amTD7dS9gU/6i0ZmVd17u+PAgMBAAGj
gZkwgZYwDgYDVR0PAQH/BAQDAgWgMAkGA1UdEwQCMAAwHQYDVR0lBBYwFAYIKwYB
BQUHAwQGCCsGAQUFBwMCMB0GA1UdDgQWBBTC2PUw+xctaOitkSFHiiAPCUAYkDAf
BgNVHSMEGDAWgBSmObbEE+MbQGkQ2prwML3bOc2DVTAaBgNVHREEEzARgQ9mcmVk
QHNpbXBsZS5vcmcwDQYJKoZIhvcNAQEFBQADggEBABP1LwubxNwXLSSNN7jhgqpr
pcjnW3u0djfMaZRaLwc7UN9KS430Zvth1I7qy7jMso/5V2672+v2AowVWhRFj91T
6taRKHmsebwgqCPT6HURDu346iEx3ppMt90Vz/9BCGDyFvTaF3gMKwLUQQ9qKw3O
/d7tD5J0jr7DcSrnEWcRIbNiGKNYT74seQnrZkFxb8ew9d6jsxJd2uXeE2ZUGzA9
uwlF1oHqiIl1Cr0Ok6taVaga693ER/R8Wvxl3vkLS1zdz1VOHmnru2Dr+3uzmv2F
rMIeNs3959GazlgNoVrWSEfsmhpk3nvHVVewoNV+Nqjxzx3Y2BgB3o6W1Gi8wwk=
-----END CERTIFICATE-----
