Certificate:
    Data:
        Version: 3 (0x2)
        Serial Number: 2 (0x2)
        Signature Algorithm: sha1WithRSAEncryption
        Issuer: DC=org, DC=simple, O=Simple Inc, OU=Simple Root CA, CN=Simple Root CA
        Validity
            Not Before: Dec  3 09:21:11 2023 GMT
            Not After : Dec  2 09:21:11 2033 GMT
        Subject: DC=org, DC=simple, O=Simple Inc, OU=Simple Signing CA, CN=Simple Signing CA
        Subject Public Key Info:
            Public Key Algorithm: rsaEncryption
                Public-Key: (2048 bit)
                Modulus:
                    00:9a:bf:0e:af:0a:21:6c:03:32:c6:47:03:58:ed:
                    0d:8e:b1:2d:bd:c3:f8:94:66:ee:9d:79:f1:15:c9:
                    e5:87:85:de:98:ee:ca:d2:73:f8:fa:e3:27:53:14:
                    c6:b9:52:aa:75:1b:3e:64:e1:67:7c:0a:26:42:43:
                    3c:53:60:42:6d:a2:94:85:fa:aa:00:c5:77:eb:e5:
                    78:90:92:ba:00:46:2b:25:fc:bc:9d:b5:c7:0d:08:
                    7d:af:3e:e4:fc:1d:f5:ff:b5:4b:1a:9d:7b:b0:7b:
                    fe:f4:5a:89:f8:d2:93:e1:32:8b:4e:b6:44:57:9e:
                    4f:78:d7:63:79:7b:6f:bb:3c:88:bb:9d:cb:6a:59:
                    eb:85:4d:40:4a:8d:4d:10:12:28:b3:ef:e3:88:ec:
                    a2:a2:d5:d5:6e:fd:92:d1:13:d6:67:5f:24:39:e4:
                    ae:5d:a1:cc:f4:0b:74:7a:09:80:d5:09:4a:2e:96:
                    b0:32:44:7e:79:c9:39:01:70:94:73:8e:9e:61:e9:
                    b1:55:51:b0:85:2f:d4:cd:f2:cf:ba:4c:ec:6f:28:
                    0b:ca:d8:2a:ca:8e:52:64:0c:58:90:b4:6d:12:99:
                    d8:c3:80:88:d4:11:62:98:31:f6:1a:1b:72:5e:06:
                    2b:8e:cf:48:7e:69:2b:e8:7f:01:cf:ef:63:a7:58:
                    91:e1
                Exponent: 65537 (0x10001)
        X509v3 extensions:
            X509v3 Key Usage: critical
                Certificate Sign, CRL Sign
            X509v3 Basic Constraints: critical
                CA:TRUE, pathlen:0
            X509v3 Subject Key Identifier: 
                A6:39:B6:C4:13:E3:1B:40:69:10:DA:9A:F0:30:BD:DB:39:CD:83:55
            X509v3 Authority Key Identifier: 
                48:05:1B:3D:3B:45:7E:03:87:AB:36:D4:F1:CD:EA:E5:55:B8:81:1E
    Signature Algorithm: sha1WithRSAEncryption
    Signature Value:
        35:56:40:13:92:8c:25:d7:2b:65:b5:c3:05:e5:5d:ad:50:44:
        ee:c6:2d:f6:9b:c9:e8:f9:e1:98:15:20:73:d0:af:30:4f:2d:
        14:af:e8:21:90:07:37:89:57:96:1f:b8:0d:77:aa:75:88:5d:
        d9:ef:ba:cd:49:70:76:11:1f:f2:65:f6:e4:48:2a:fe:f1:e5:
        70:8e:3e:fd:88:ef:ac:cb:43:e8:5d:e8:d9:e5:e4:ee:7c:49:
        47:ec:cb:8a:4e:12:9e:28:ca:82:16:16:41:d1:4d:49:43:e3:
        4d:ab:e3:1e:80:af:18:c6:bc:46:74:eb:4d:17:b4:08:da:2b:
        96:46:28:40:47:f3:f7:93:0f:a0:f2:0c:29:28:82:c8:2b:ea:
        3b:01:cb:81:48:77:0d:d0:a3:8c:88:51:1e:f6:57:0d:ae:7e:
        bd:4e:a5:7a:dc:e1:f2:d0:db:68:79:0f:26:18:7d:3d:5c:c1:
        68:b1:61:50:a0:4e:d0:98:dd:42:b7:a4:ee:8b:59:3b:05:bf:
        87:53:1a:c2:e2:d6:52:b6:60:50:9d:5b:e9:26:83:62:4d:0b:
        3c:0f:4b:14:80:00:18:3d:da:36:ee:a2:fa:ba:70:84:ed:18:
        51:de:3e:aa:63:44:44:90:a4:d7:36:d9:14:3a:25:8a:37:72:
        50:f2:09:d4
-----BEGIN CERTIFICATE-----
MIIDzzCCAregAwIBAgIBAjANBgkqhkiG9w0BAQUFADB0MRMwEQYKCZImiZPyLGQB
GRYDb3JnMRYwFAYKCZImiZPyLGQBGRYGc2ltcGxlMRMwEQYDVQQKDApTaW1wbGUg
SW5jMRcwFQYDVQQLDA5TaW1wbGUgUm9vdCBDQTEXMBUGA1UEAwwOU2ltcGxlIFJv
b3QgQ0EwHhcNMjMxMjAzMDkyMTExWhcNMzMxMjAyMDkyMTExWjB6MRMwEQYKCZIm
iZPyLGQBGRYDb3JnMRYwFAYKCZImiZPyLGQBGRYGc2ltcGxlMRMwEQYDVQQKDApT
aW1wbGUgSW5jMRowGAYDVQQLDBFTaW1wbGUgU2lnbmluZyBDQTEaMBgGA1UEAwwR
U2ltcGxlIFNpZ25pbmcgQ0EwggEiMA0GCSqGSIb3DQEBAQUAA4IBDwAwggEKAoIB
AQCavw6vCiFsAzLGRwNY7Q2OsS29w/iUZu6defEVyeWHhd6Y7srSc/j64ydTFMa5
Uqp1Gz5k4Wd8CiZCQzxTYEJtopSF+qoAxXfr5XiQkroARisl/LydtccNCH2vPuT8
HfX/tUsanXuwe/70Won40pPhMotOtkRXnk9412N5e2+7PIi7nctqWeuFTUBKjU0Q
Eiiz7+OI7KKi1dVu/ZLRE9ZnXyQ55K5docz0C3R6CYDVCUoulrAyRH55yTkBcJRz
jp5h6bFVUbCFL9TN8s+6TOxvKAvK2CrKjlJkDFiQtG0SmdjDgIjUEWKYMfYaG3Je
BiuOz0h+aSvofwHP72OnWJHhAgMBAAGjZjBkMA4GA1UdDwEB/wQEAwIBBjASBgNV
HRMBAf8ECDAGAQH/AgEAMB0GA1UdDgQWBBSmObbEE+MbQGkQ2prwML3bOc2DVTAf
BgNVHSMEGDAWgBRIBRs9O0V+A4erNtTxzerlVbiBHjANBgkqhkiG9w0BAQUFAAOC
AQEANVZAE5KMJdcrZbXDBeVdrVBE7sYt9pvJ6PnhmBUgc9CvME8tFK/oIZAHN4lX
lh+4DXeqdYhd2e+6zUlwdhEf8mX25Egq/vHlcI4+/YjvrMtD6F3o2eXk7nxJR+zL
ik4SnijKghYWQdFNSUPjTavjHoCvGMa8RnTrTRe0CNorlkYoQEfz95MPoPIMKSiC
yCvqOwHLgUh3DdCjjIhRHvZXDa5+vU6letzh8tDbaHkPJhh9PVzBaLFhUKBO0Jjd
Qrek7otZOwW/h1MawuLWUrZgUJ1b6SaDYk0LPA9LFIAAGD3aNu6i+rpwhO0YUd4+
qmNERJCk1zbZFDolijdyUPIJ1A==
-----END CERTIFICATE-----
